; Function Attrs: mustprogress nofree norecurse nosync nounwind willreturn memory(read, inaccessiblemem: none) uwtable
define dso_local noundef zeroext i1 @_ZNK13ArrayVariable16is_visible_localEPK5Block(ptr nocapture noundef nonnull readonly align 8 dereferenceable(288) %0, ptr noundef readonly %1) unnamed_addr #8 align 2 {
  %3 = getelementptr inbounds i8, ptr %0, i64 208
  %4 = load ptr, ptr %3, align 8
  %.not10 = icmp ne ptr %1, null
  %5 = icmp ne ptr %4, %1
  %or.cond.not11 = select i1 %.not10, i1 %5, i1 false
  br i1 %or.cond.not11, label %.lr.ph, label %._crit_edge

.lr.ph:                                           ; preds = %2, %.lr.ph
  %.012 = phi ptr [ %7, %.lr.ph ], [ %1, %2 ]
  %6 = getelementptr inbounds i8, ptr %.012, i64 24
  %7 = load ptr, ptr %6, align 8
  %.not = icmp ne ptr %7, null
  %8 = icmp ne ptr %7, %4
  %or.cond.not = select i1 %.not, i1 %8, i1 false
  br i1 %or.cond.not, label %.lr.ph, label %._crit_edge, !llvm.loop !20

._crit_edge:                                      ; preds = %.lr.ph, %2
  %.not.lcssa = phi i1 [ %.not10, %2 ], [ %.not, %.lr.ph ]
  ret i1 %.not.lcssa
}